target datalayout = "e-m:e-p270:32:32-p271:32:32-p272:64:64-i64:64-i128:128-f80:128-n8:16:32:64-S128"
target triple = "x86_64-pc-linux-gnu"

; Function Attrs: nounwind uwtable
define dso_local void @clusterCommandShards(ptr noundef %0) #0 {
  %2 = alloca ptr, align 8
  %3 = alloca ptr, align 8
  %4 = alloca ptr, align 8
  store ptr %0, ptr %2, align 8, !tbaa !53
  %5 = load ptr, ptr %2, align 8, !tbaa !53
  %6 = call i32 @clusterGetShardCount()
  %7 = sext i32 %6 to i64
  call void @addReplyArrayLen(ptr noundef %5, i64 noundef %7)
  call void @clusterGenNodesSlotsInfo(i32 noundef 0)
  call void @llvm.lifetime.start.p0(i64 8, ptr %3) #14
  %8 = call ptr @clusterGetShardIterator()
  store ptr %8, ptr %3, align 8, !tbaa !100
  call void @llvm.lifetime.start.p0(i64 8, ptr %4) #14
  %9 = load ptr, ptr %3, align 8, !tbaa !100
  %10 = call ptr @clusterNextShardHandle(ptr noundef %9)
  store ptr %10, ptr %4, align 8, !tbaa !118
  br label %11

11:                                               ; preds = %18, %1
  %12 = load ptr, ptr %4, align 8, !tbaa !118
  %13 = icmp ne ptr %12, null
  br i1 %13, label %15, label %14

14:                                               ; preds = %11
  call void @llvm.lifetime.end.p0(i64 8, ptr %4) #14
  br label %21

15:                                               ; preds = %11
  %16 = load ptr, ptr %2, align 8, !tbaa !53
  %17 = load ptr, ptr %4, align 8, !tbaa !118
  call void @addShardReplyForClusterShards(ptr noundef %16, ptr noundef %17)
  br label %18

18:                                               ; preds = %15
  %19 = load ptr, ptr %3, align 8, !tbaa !100
  %20 = call ptr @clusterNextShardHandle(ptr noundef %19)
  store ptr %20, ptr %4, align 8, !tbaa !118
  br label %11, !llvm.loop !123

21:                                               ; preds = %14
  %22 = load ptr, ptr %3, align 8, !tbaa !100
  call void @clusterFreeShardIterator(ptr noundef %22)
  call void @llvm.lifetime.end.p0(i64 8, ptr %3) #14
  ret void
}