; Function Attrs: nounwind uwtable
define dso_local void @clusterCommandShards(ptr noundef %0) local_unnamed_addr #0 {
  %2 = tail call i32 @clusterGetShardCount() #16
  %3 = sext i32 %2 to i64
  tail call void @addReplyArrayLen(ptr noundef %0, i64 noundef %3) #16
  tail call void @clusterGenNodesSlotsInfo(i32 noundef 0) #16
  %4 = tail call ptr @clusterGetShardIterator() #16
  %5 = tail call ptr @clusterNextShardHandle(ptr noundef %4) #16
  %.not7 = icmp eq ptr %5, null
  br i1 %.not7, label %._crit_edge, label %.lr.ph

._crit_edge:                                      ; preds = %.lr.ph, %1
  tail call void @clusterFreeShardIterator(ptr noundef %4) #16
  ret void

.lr.ph:                                           ; preds = %1, %.lr.ph
  %.08 = phi ptr [ %6, %.lr.ph ], [ %5, %1 ]
  tail call void @addShardReplyForClusterShards(ptr noundef %0, ptr noundef nonnull %.08)
  %6 = tail call ptr @clusterNextShardHandle(ptr noundef %4) #16
  %.not = icmp eq ptr %6, null
  br i1 %.not, label %._crit_edge, label %.lr.ph, !llvm.loop !107
}